Certificate:
    Data:
        Version: 3 (0x2)
        Serial Number: 9 (0x9)
    Signature Algorithm: sha256WithRSAEncryption
        Issuer: C=AU, ST=NSW, L=WOLLONGONG, O=UOW, OU=CS, CN=CSCI969/emailAddress=DC946@UOWMAIL.COM
        Validity
            Not Before: Jun  5 12:50:57 2016 GMT
            Not After : Jun  3 12:50:57 2026 GMT
        Subject: C=AU, ST=NSW, O=UOW, OU=CS, CN=\x00t\x00a\x00l\x00l\x00y\x00_\x003
        Subject Public Key Info:
            Public Key Algorithm: rsaEncryption
                Public-Key: (2048 bit)
                Modulus:
                    00:b1:3a:d6:3b:2d:ba:2b:57:90:b8:ab:13:e3:a8:
                    b3:af:7d:e2:24:24:fb:93:d2:76:d6:44:95:60:0c:
                    ed:57:ea:1e:16:4c:ef:85:f0:e2:df:55:56:8b:76:
                    89:5b:d4:63:15:30:79:15:fa:f2:d9:80:c6:55:d5:
                    58:72:1a:5e:89:d6:30:ae:08:1e:7c:4b:2d:04:17:
                    15:c8:01:ea:f6:c8:66:ca:a0:03:6b:47:8a:9d:54:
                    2d:e5:e6:fd:b0:03:cd:03:9b:bd:9b:af:08:b0:93:
                    c3:85:cb:08:92:c2:fa:7c:f7:13:59:b4:49:27:ca:
                    20:0f:81:b3:e6:e9:95:27:33:1c:0e:f6:c6:17:5a:
                    35:c6:38:3e:5e:5e:fb:04:32:06:21:37:1e:66:b6:
                    dc:c0:d4:9d:b2:45:3f:0f:ac:7c:0a:22:6d:35:3e:
                    45:49:36:d9:5f:0b:94:66:4e:56:f9:6e:4c:1b:11:
                    c6:22:c4:32:1a:bd:77:ec:23:94:f1:bf:28:89:98:
                    72:4c:04:77:8e:21:b9:59:44:5a:60:a4:44:de:ee:
                    68:17:fc:fc:27:af:9f:61:d6:ca:f1:39:e1:85:19:
                    c5:81:a1:ff:8d:0d:06:e8:5d:52:19:f3:df:43:3c:
                    d5:77:cf:01:fc:fd:39:30:cb:4b:9d:5e:7d:6e:30:
                    d1:c7
                Exponent: 65537 (0x10001)
        X509v3 extensions:
            X509v3 Basic Constraints: 
                CA:FALSE
            Netscape Comment: 
                OpenSSL Generated Certificate
            X509v3 Subject Key Identifier: 
                2F:8E:58:92:F8:1E:47:03:FA:43:24:7D:8A:B8:CA:55:A5:27:E7:70
            X509v3 Authority Key Identifier: 
                keyid:52:F8:C5:0C:06:08:AC:DB:0D:CF:5F:CE:DA:30:D9:A1:8B:7E:A9:AC

    Signature Algorithm: sha256WithRSAEncryption
         29:89:de:71:f6:4e:61:8e:6d:19:c8:25:a0:9b:22:af:d6:b3:
         54:8b:b5:2b:1a:7c:3b:79:b1:34:b6:32:53:9e:fc:ad:9f:76:
         35:c8:c5:3e:b4:40:f0:39:00:6e:60:94:9b:e2:50:eb:03:95:
         c3:28:0a:f1:fd:c4:c1:fc:4f:4f:c8:06:3d:7a:6c:cd:72:af:
         3f:f0:af:50:a3:fd:81:34:0a:b0:85:8a:bc:e9:3c:11:b2:de:
         19:e0:eb:b9:f3:14:4f:38:26:50:4e:8d:02:24:ca:17:9e:b5:
         37:d9:f4:61:47:d6:17:80:87:af:80:d5:68:fa:64:35:f3:12:
         0b:ea:1b:31:44:dc:6a:b2:ae:a5:5c:b8:72:ac:ae:82:08:7d:
         ce:4b:fc:15:2d:b6:eb:42:72:3b:7b:95:eb:d4:c9:29:5e:ff:
         c4:31:56:1f:b8:7a:90:e8:11:24:06:89:95:0d:2b:e5:50:fd:
         2b:41:6f:d5:57:64:92:d3:b1:89:c1:25:95:64:fb:aa:70:b5:
         77:d0:0c:6d:0e:11:7f:a1:a8:c3:53:27:e3:98:4b:1e:5e:76:
         77:82:35:f9:9b:0a:59:a8:80:fc:6d:25:ee:93:1e:f6:b1:56:
         b6:36:5f:81:e9:12:20:ef:92:f4:6a:89:57:45:9e:90:30:d7:
         71:cb:3b:55
-----BEGIN CERTIFICATE-----
MIIDxDCCAqygAwIBAgIBCTANBgkqhkiG9w0BAQsFADB/MQswCQYDVQQGEwJBVTEM
MAoGA1UECBMDTlNXMRMwEQYDVQQHEwpXT0xMT05HT05HMQwwCgYDVQQKEwNVT1cx
CzAJBgNVBAsTAkNTMRAwDgYDVQQDEwdDU0NJOTY5MSAwHgYJKoZIhvcNAQkBFhFE
Qzk0NkBVT1dNQUlMLkNPTTAeFw0xNjA2MDUxMjUwNTdaFw0yNjA2MDMxMjUwNTda
ME8xCzAJBgNVBAYTAkFVMQwwCgYDVQQIEwNOU1cxDDAKBgNVBAoTA1VPVzELMAkG
A1UECxMCQ1MxFzAVBgNVBAMeDgB0AGEAbABsAHkAXwAzMIIBIjANBgkqhkiG9w0B
AQEFAAOCAQ8AMIIBCgKCAQEAsTrWOy26K1eQuKsT46izr33iJCT7k9J21kSVYAzt
V+oeFkzvhfDi31VWi3aJW9RjFTB5Ffry2YDGVdVYchpeidYwrggefEstBBcVyAHq
9shmyqADa0eKnVQt5eb9sAPNA5u9m68IsJPDhcsIksL6fPcTWbRJJ8ogD4Gz5umV
JzMcDvbGF1o1xjg+Xl77BDIGITceZrbcwNSdskU/D6x8CiJtNT5FSTbZXwuUZk5W
+W5MGxHGIsQyGr137COU8b8oiZhyTAR3jiG5WURaYKRE3u5oF/z8J6+fYdbK8Tnh
hRnFgaH/jQ0G6F1SGfPfQzzVd88B/P05MMtLnV59bjDRxwIDAQABo3sweTAJBgNV
HRMEAjAAMCwGCWCGSAGG+EIBDQQfFh1PcGVuU1NMIEdlbmVyYXRlZCBDZXJ0aWZp
Y2F0ZTAdBgNVHQ4EFgQUL45YkvgeRwP6QyR9irjKVaUn53AwHwYDVR0jBBgwFoAU
UvjFDAYIrNsNz1/O2jDZoYt+qawwDQYJKoZIhvcNAQELBQADggEBACmJ3nH2TmGO
bRnIJaCbIq/Ws1SLtSsafDt5sTS2MlOe/K2fdjXIxT60QPA5AG5glJviUOsDlcMo
CvH9xMH8T0/IBj16bM1yrz/wr1Cj/YE0CrCFirzpPBGy3hng67nzFE84JlBOjQIk
yheetTfZ9GFH1heAh6+A1Wj6ZDXzEgvqGzFE3GqyrqVcuHKsroIIfc5L/BUttutC
cjt7levUySle/8QxVh+4epDoESQGiZUNK+VQ/StBb9VXZJLTsYnBJZVk+6pwtXfQ
DG0OEX+hqMNTJ+OYSx5edneCNfmbClmogPxtJe6THvaxVrY2X4HpEiDvkvRqiVdF
npAw13HLO1U=
-----END CERTIFICATE-----
