Certificate:
    Data:
        Version: 3 (0x2)
        Serial Number: 7 (0x7)
    Signature Algorithm: sha256WithRSAEncryption
        Issuer: C=AU, ST=NSW, L=WOLLONGONG, O=UOW, OU=CS, CN=CSCI969/emailAddress=DC946@UOWMAIL.COM
        Validity
            Not Before: Jun  5 12:50:14 2016 GMT
            Not After : Jun  3 12:50:14 2026 GMT
        Subject: C=AU, ST=NSW, O=UOW, OU=CS, CN=\x00t\x00a\x00l\x00l\x00y\x00_\x001
        Subject Public Key Info:
            Public Key Algorithm: rsaEncryption
                Public-Key: (2048 bit)
                Modulus:
                    00:e7:29:09:40:43:cb:8b:c7:55:c8:ac:0d:21:16:
                    32:e0:d7:28:f2:d9:b5:8e:ed:49:d5:44:09:5f:11:
                    ed:db:35:74:cd:ef:3f:24:99:7c:89:00:92:5f:6b:
                    62:0e:0d:66:c5:34:b9:d5:0a:47:08:21:36:55:c1:
                    51:72:47:44:11:d0:0a:9f:47:8e:82:9d:c8:dc:89:
                    00:9c:db:05:cc:0d:52:f0:e3:e6:de:81:1a:73:90:
                    3a:b0:26:7e:24:5e:3a:5b:db:f2:fd:03:df:f6:6e:
                    8b:84:19:af:3c:74:b3:8e:f6:99:dc:c9:e4:b6:ad:
                    ae:c2:bf:a1:55:aa:d5:ab:59:71:98:0b:03:bc:c1:
                    20:a8:75:63:b4:52:1f:c5:ea:1d:40:15:81:4e:b4:
                    8c:a0:f0:1b:df:50:a9:c6:dc:3d:02:51:1f:95:99:
                    24:ea:2d:42:83:1c:66:b3:0f:e6:51:d4:27:25:36:
                    1b:3a:db:51:07:9a:cb:c8:7c:b3:7d:e6:d5:1b:90:
                    5d:c5:ef:22:69:99:35:23:20:2e:49:a5:00:05:11:
                    7b:36:f4:78:e0:94:da:b8:bd:23:e3:68:78:3c:2e:
                    a8:00:5d:69:15:aa:fc:b0:54:01:e0:5f:f1:2a:a3:
                    f9:e9:73:18:2d:b9:6f:83:9b:92:0e:40:93:1f:8e:
                    06:57
                Exponent: 65537 (0x10001)
        X509v3 extensions:
            X509v3 Basic Constraints: 
                CA:FALSE
            Netscape Comment: 
                OpenSSL Generated Certificate
            X509v3 Subject Key Identifier: 
                EE:D3:3D:4D:CE:9E:E0:BB:2E:07:64:5F:EB:83:36:AE:DA:9E:94:72
            X509v3 Authority Key Identifier: 
                keyid:52:F8:C5:0C:06:08:AC:DB:0D:CF:5F:CE:DA:30:D9:A1:8B:7E:A9:AC

    Signature Algorithm: sha256WithRSAEncryption
         02:39:8f:f0:32:75:56:e7:7c:d9:48:7d:90:cf:07:3d:de:85:
         ee:46:b1:ef:dc:02:7a:f6:82:17:73:44:1c:af:c2:21:74:14:
         dc:de:41:75:58:86:b1:bd:ff:34:d7:c4:78:fa:11:64:16:85:
         02:f5:1f:b7:67:8c:7d:4b:cd:34:fa:b2:ff:d2:9e:bc:47:8f:
         ac:f1:ba:e8:28:2b:8b:c5:77:ca:67:ac:32:ef:7c:30:e1:9d:
         0c:37:60:cd:79:ed:c9:e4:22:0d:d9:24:cb:a0:7c:d2:cc:32:
         89:0f:c6:13:f8:60:6e:f7:a7:48:e7:8b:86:f5:4f:df:de:4b:
         2a:a0:42:5e:24:34:11:eb:f4:88:7e:42:f4:c6:ab:4a:76:76:
         d0:2f:37:d4:3b:46:29:7b:34:b5:c0:17:42:4e:1f:11:72:09:
         67:51:5a:df:23:8e:94:e1:7d:7e:4c:a2:8d:78:7d:a4:57:3b:
         ec:c0:19:7c:8a:0b:84:95:06:a8:f5:e9:36:5c:22:8c:96:8e:
         7a:6a:1a:47:ee:a5:21:5c:9b:dc:ca:c7:93:d3:3d:b6:14:c6:
         ea:85:84:73:09:fb:21:27:7f:5b:25:b4:8e:9c:da:57:0d:14:
         75:9b:3f:7f:c9:8d:38:d0:f3:4c:e3:9c:56:96:2e:0e:02:ed:
         ed:39:55:39
-----BEGIN CERTIFICATE-----
MIIDxDCCAqygAwIBAgIBBzANBgkqhkiG9w0BAQsFADB/MQswCQYDVQQGEwJBVTEM
MAoGA1UECBMDTlNXMRMwEQYDVQQHEwpXT0xMT05HT05HMQwwCgYDVQQKEwNVT1cx
CzAJBgNVBAsTAkNTMRAwDgYDVQQDEwdDU0NJOTY5MSAwHgYJKoZIhvcNAQkBFhFE
Qzk0NkBVT1dNQUlMLkNPTTAeFw0xNjA2MDUxMjUwMTRaFw0yNjA2MDMxMjUwMTRa
ME8xCzAJBgNVBAYTAkFVMQwwCgYDVQQIEwNOU1cxDDAKBgNVBAoTA1VPVzELMAkG
A1UECxMCQ1MxFzAVBgNVBAMeDgB0AGEAbABsAHkAXwAxMIIBIjANBgkqhkiG9w0B
AQEFAAOCAQ8AMIIBCgKCAQEA5ykJQEPLi8dVyKwNIRYy4Nco8tm1ju1J1UQJXxHt
2zV0ze8/JJl8iQCSX2tiDg1mxTS51QpHCCE2VcFRckdEEdAKn0eOgp3I3IkAnNsF
zA1S8OPm3oEac5A6sCZ+JF46W9vy/QPf9m6LhBmvPHSzjvaZ3Mnktq2uwr+hVarV
q1lxmAsDvMEgqHVjtFIfxeodQBWBTrSMoPAb31Cpxtw9AlEflZkk6i1Cgxxmsw/m
UdQnJTYbOttRB5rLyHyzfebVG5Bdxe8iaZk1IyAuSaUABRF7NvR44JTauL0j42h4
PC6oAF1pFar8sFQB4F/xKqP56XMYLblvg5uSDkCTH44GVwIDAQABo3sweTAJBgNV
HRMEAjAAMCwGCWCGSAGG+EIBDQQfFh1PcGVuU1NMIEdlbmVyYXRlZCBDZXJ0aWZp
Y2F0ZTAdBgNVHQ4EFgQU7tM9Tc6e4LsuB2Rf64M2rtqelHIwHwYDVR0jBBgwFoAU
UvjFDAYIrNsNz1/O2jDZoYt+qawwDQYJKoZIhvcNAQELBQADggEBAAI5j/AydVbn
fNlIfZDPBz3ehe5Gse/cAnr2ghdzRByvwiF0FNzeQXVYhrG9/zTXxHj6EWQWhQL1
H7dnjH1LzTT6sv/SnrxHj6zxuugoK4vFd8pnrDLvfDDhnQw3YM157cnkIg3ZJMug
fNLMMokPxhP4YG73p0jni4b1T9/eSyqgQl4kNBHr9Ih+QvTGq0p2dtAvN9Q7Ril7
NLXAF0JOHxFyCWdRWt8jjpThfX5Moo14faRXO+zAGXyKC4SVBqj16TZcIoyWjnpq
GkfupSFcm9zKx5PTPbYUxuqFhHMJ+yEnf1sltI6c2lcNFHWbP3/JjTjQ80zjnFaW
Lg4C7e05VTk=
-----END CERTIFICATE-----
