Certificate:
    Data:
        Version: 3 (0x2)
        Serial Number: 10 (0xa)
    Signature Algorithm: sha256WithRSAEncryption
        Issuer: C=AU, ST=NSW, L=WOLLONGONG, O=UOW, OU=CS, CN=CSCI969/emailAddress=DC946@UOWMAIL.COM
        Validity
            Not Before: Jun  5 12:51:16 2016 GMT
            Not After : Jun  3 12:51:16 2026 GMT
        Subject: C=AU, ST=NSW, O=UOW, OU=CS, CN=\x00t\x00a\x00l\x00l\x00y\x00_\x004
        Subject Public Key Info:
            Public Key Algorithm: rsaEncryption
                Public-Key: (2048 bit)
                Modulus:
                    00:b9:43:38:56:61:4d:b5:03:d6:33:cd:74:d0:c1:
                    b3:8c:6a:6b:6a:89:45:ce:45:3f:aa:ff:b9:4b:05:
                    52:22:a8:68:07:d8:7e:ac:75:f4:1c:38:91:61:6b:
                    c2:72:32:a5:b6:e0:6b:26:f0:16:8d:f5:30:d9:cd:
                    38:74:a0:3a:a2:ee:41:0c:f6:80:c1:89:2f:4b:d2:
                    40:e0:45:38:bb:b1:93:70:9a:ce:22:17:2a:4b:24:
                    37:57:42:66:3e:eb:9d:cc:a2:cf:28:bb:cb:01:f9:
                    eb:26:23:5b:dd:cf:15:eb:ce:97:cb:c2:a4:c0:2b:
                    70:74:8f:39:83:67:34:9f:cc:1a:d5:c3:da:13:a1:
                    50:cc:75:03:c6:56:fd:d0:55:be:72:09:0c:6f:47:
                    0b:0e:d4:f2:d0:fb:8d:c2:84:96:46:c7:4f:ce:d1:
                    0f:7d:18:ed:82:04:6a:b1:59:7b:87:91:7d:83:c8:
                    10:d9:73:d9:43:25:54:14:a9:58:f2:af:8c:1f:fd:
                    5c:80:92:38:44:6e:36:86:0e:f8:54:e9:2c:29:bb:
                    20:ce:76:0e:b3:c8:2b:a9:0c:5a:09:63:71:9f:92:
                    6f:1c:25:6d:9e:29:8f:f6:f9:1d:43:c5:d8:62:d2:
                    20:29:83:b6:49:b1:8e:0b:c4:34:4d:dc:2c:12:52:
                    96:01
                Exponent: 65537 (0x10001)
        X509v3 extensions:
            X509v3 Basic Constraints: 
                CA:FALSE
            Netscape Comment: 
                OpenSSL Generated Certificate
            X509v3 Subject Key Identifier: 
                AD:61:B9:09:BD:88:C2:D9:B6:EE:E2:E0:30:60:0E:E2:60:40:AC:9B
            X509v3 Authority Key Identifier: 
                keyid:52:F8:C5:0C:06:08:AC:DB:0D:CF:5F:CE:DA:30:D9:A1:8B:7E:A9:AC

    Signature Algorithm: sha256WithRSAEncryption
         b0:e7:c2:c2:ca:ec:87:cc:fb:93:d4:e7:68:cf:1e:99:b5:4b:
         91:29:5a:bb:2e:27:82:14:97:e2:d2:cf:3b:02:48:0a:10:a0:
         5e:de:e1:81:05:44:e3:d2:1a:f6:b5:b9:23:dc:ad:52:49:e2:
         91:40:35:a7:95:82:27:2a:39:74:ca:77:f4:ba:9b:1c:b1:77:
         a9:d9:e3:15:3f:0f:dc:91:f2:52:ea:79:e3:32:05:97:7f:1b:
         79:06:60:ec:bf:65:5b:58:d7:fe:88:90:7a:c0:f7:56:40:ef:
         f3:d9:5b:19:65:c0:d3:72:b7:22:91:4f:a8:3d:e4:fa:d6:ca:
         39:05:58:98:73:9e:18:6f:0e:f4:ad:31:4a:7c:f2:33:0e:37:
         7a:ac:35:3d:f3:ab:bb:1c:9b:97:fd:24:15:e4:0a:23:e0:e1:
         9f:22:67:5c:bd:aa:82:66:ee:5b:23:bb:5f:79:80:5a:f3:59:
         8f:be:45:a3:38:c5:1c:0f:5c:9f:9f:54:e8:59:ae:54:32:79:
         50:ff:1e:82:ef:a3:1a:fe:ef:0f:5c:41:f9:56:aa:df:a3:92:
         1c:6c:42:1a:5d:b4:aa:04:b4:4d:a9:f2:89:4d:3f:b6:5c:de:
         2e:33:4a:db:dd:43:c7:dc:7b:10:51:07:04:15:81:b3:af:b5:
         29:1d:fc:04
-----BEGIN CERTIFICATE-----
MIIDxDCCAqygAwIBAgIBCjANBgkqhkiG9w0BAQsFADB/MQswCQYDVQQGEwJBVTEM
MAoGA1UECBMDTlNXMRMwEQYDVQQHEwpXT0xMT05HT05HMQwwCgYDVQQKEwNVT1cx
CzAJBgNVBAsTAkNTMRAwDgYDVQQDEwdDU0NJOTY5MSAwHgYJKoZIhvcNAQkBFhFE
Qzk0NkBVT1dNQUlMLkNPTTAeFw0xNjA2MDUxMjUxMTZaFw0yNjA2MDMxMjUxMTZa
ME8xCzAJBgNVBAYTAkFVMQwwCgYDVQQIEwNOU1cxDDAKBgNVBAoTA1VPVzELMAkG
A1UECxMCQ1MxFzAVBgNVBAMeDgB0AGEAbABsAHkAXwA0MIIBIjANBgkqhkiG9w0B
AQEFAAOCAQ8AMIIBCgKCAQEAuUM4VmFNtQPWM8100MGzjGpraolFzkU/qv+5SwVS
IqhoB9h+rHX0HDiRYWvCcjKltuBrJvAWjfUw2c04dKA6ou5BDPaAwYkvS9JA4EU4
u7GTcJrOIhcqSyQ3V0JmPuudzKLPKLvLAfnrJiNb3c8V686Xy8KkwCtwdI85g2c0
n8wa1cPaE6FQzHUDxlb90FW+cgkMb0cLDtTy0PuNwoSWRsdPztEPfRjtggRqsVl7
h5F9g8gQ2XPZQyVUFKlY8q+MH/1cgJI4RG42hg74VOksKbsgznYOs8grqQxaCWNx
n5JvHCVtnimP9vkdQ8XYYtIgKYO2SbGOC8Q0TdwsElKWAQIDAQABo3sweTAJBgNV
HRMEAjAAMCwGCWCGSAGG+EIBDQQfFh1PcGVuU1NMIEdlbmVyYXRlZCBDZXJ0aWZp
Y2F0ZTAdBgNVHQ4EFgQUrWG5Cb2Iwtm27uLgMGAO4mBArJswHwYDVR0jBBgwFoAU
UvjFDAYIrNsNz1/O2jDZoYt+qawwDQYJKoZIhvcNAQELBQADggEBALDnwsLK7IfM
+5PU52jPHpm1S5EpWrsuJ4IUl+LSzzsCSAoQoF7e4YEFROPSGva1uSPcrVJJ4pFA
NaeVgicqOXTKd/S6mxyxd6nZ4xU/D9yR8lLqeeMyBZd/G3kGYOy/ZVtY1/6IkHrA
91ZA7/PZWxllwNNytyKRT6g95PrWyjkFWJhznhhvDvStMUp88jMON3qsNT3zq7sc
m5f9JBXkCiPg4Z8iZ1y9qoJm7lsju195gFrzWY++RaM4xRwPXJ+fVOhZrlQyeVD/
HoLvoxr+7w9cQflWqt+jkhxsQhpdtKoEtE2p8olNP7Zc3i4zStvdQ8fcexBRBwQV
gbOvtSkd/AQ=
-----END CERTIFICATE-----
