Certificate:
    Data:
        Version: 3 (0x2)
        Serial Number: 8 (0x8)
    Signature Algorithm: sha256WithRSAEncryption
        Issuer: C=AU, ST=NSW, L=WOLLONGONG, O=UOW, OU=CS, CN=CSCI969/emailAddress=DC946@UOWMAIL.COM
        Validity
            Not Before: Jun  5 12:50:39 2016 GMT
            Not After : Jun  3 12:50:39 2026 GMT
        Subject: C=AU, ST=NSW, O=UOW, OU=CS, CN=\x00t\x00a\x00l\x00l\x00y\x00_\x002
        Subject Public Key Info:
            Public Key Algorithm: rsaEncryption
                Public-Key: (2048 bit)
                Modulus:
                    00:e6:d3:13:c4:30:05:ad:35:ab:14:16:30:6a:ac:
                    2f:60:c2:9a:1f:98:df:9a:7d:82:1d:2d:c5:0f:7e:
                    95:19:4a:28:c4:2b:7f:7f:72:59:c3:28:4a:41:bc:
                    05:3a:af:76:c5:d9:0c:a9:07:f1:b1:e7:d8:e0:09:
                    0e:82:01:1b:06:f4:b3:09:80:bf:29:57:3e:23:77:
                    34:2c:34:66:4c:d2:b4:8b:e2:24:c4:b4:a7:e9:2d:
                    76:c7:2c:ce:ba:92:13:06:7f:40:7a:71:c4:42:99:
                    53:17:09:61:fe:a7:0a:1b:4f:5a:5f:1b:2a:35:d7:
                    f8:eb:3c:b9:15:44:e5:97:f8:b8:74:48:01:41:68:
                    cf:46:19:69:6f:f2:2c:43:d8:8a:a5:a0:89:35:17:
                    20:d9:0e:a5:28:cf:b5:11:12:cb:b8:87:b3:ae:cf:
                    e8:ed:ae:64:f0:02:3b:9d:51:8b:8d:88:83:9f:70:
                    75:c9:2b:33:cd:4b:41:60:37:84:be:ab:76:42:86:
                    05:9b:14:ea:82:d4:ed:a3:f7:b3:c1:41:21:25:7b:
                    c0:5a:b2:15:4b:18:b2:fc:8a:ee:db:8c:21:89:3b:
                    0a:a6:ec:02:77:da:9f:35:bd:d3:a4:c5:d2:c0:9b:
                    53:5e:03:b8:02:69:9b:53:2e:19:96:c7:44:ba:42:
                    d4:6f
                Exponent: 65537 (0x10001)
        X509v3 extensions:
            X509v3 Basic Constraints: 
                CA:FALSE
            Netscape Comment: 
                OpenSSL Generated Certificate
            X509v3 Subject Key Identifier: 
                83:0C:21:47:3E:48:74:3B:8E:3C:E5:1B:B1:F5:8B:46:F4:3C:F6:60
            X509v3 Authority Key Identifier: 
                keyid:52:F8:C5:0C:06:08:AC:DB:0D:CF:5F:CE:DA:30:D9:A1:8B:7E:A9:AC

    Signature Algorithm: sha256WithRSAEncryption
         5d:86:79:36:4e:6d:94:ee:2f:8f:94:bf:ef:e3:14:15:5f:9c:
         cd:38:83:8b:3f:61:12:ff:ef:00:9c:ee:c7:96:49:7c:3e:41:
         d5:3c:f1:37:d2:a3:8b:a1:9a:15:68:20:af:3d:93:db:85:02:
         fc:0f:08:a5:05:b4:d6:88:37:3d:f2:97:3f:63:b4:9c:47:11:
         d3:51:7b:8f:8a:aa:ac:7c:fa:64:e4:07:7b:aa:23:cb:2d:14:
         04:ad:19:36:c7:c9:cb:47:29:63:b5:75:ac:a4:f0:0f:d8:db:
         6e:a3:40:10:9a:4f:90:0f:f4:49:d1:e4:5e:74:e4:38:97:79:
         c9:48:c6:1b:ea:ee:d2:0f:3c:03:6d:1e:24:60:57:41:a3:ad:
         86:0e:2d:a4:5c:9a:de:7a:b1:5e:1d:dc:7d:94:f0:a5:54:a4:
         08:7a:1b:e4:6a:a4:78:cd:66:78:df:14:d8:6e:72:6c:44:87:
         4e:a4:2c:99:47:e0:4d:54:3e:bd:a4:f5:c8:42:65:1c:16:a3:
         c6:f7:24:6d:e9:85:44:5c:03:7f:78:54:56:5e:c3:94:a8:45:
         a0:5e:85:a3:2a:05:82:45:69:41:68:59:38:50:98:fb:9e:09:
         2a:7c:d3:36:59:99:5b:90:26:b3:e0:c3:bb:86:a5:19:3c:ed:
         bb:08:99:f0
-----BEGIN CERTIFICATE-----
MIIDxDCCAqygAwIBAgIBCDANBgkqhkiG9w0BAQsFADB/MQswCQYDVQQGEwJBVTEM
MAoGA1UECBMDTlNXMRMwEQYDVQQHEwpXT0xMT05HT05HMQwwCgYDVQQKEwNVT1cx
CzAJBgNVBAsTAkNTMRAwDgYDVQQDEwdDU0NJOTY5MSAwHgYJKoZIhvcNAQkBFhFE
Qzk0NkBVT1dNQUlMLkNPTTAeFw0xNjA2MDUxMjUwMzlaFw0yNjA2MDMxMjUwMzla
ME8xCzAJBgNVBAYTAkFVMQwwCgYDVQQIEwNOU1cxDDAKBgNVBAoTA1VPVzELMAkG
A1UECxMCQ1MxFzAVBgNVBAMeDgB0AGEAbABsAHkAXwAyMIIBIjANBgkqhkiG9w0B
AQEFAAOCAQ8AMIIBCgKCAQEA5tMTxDAFrTWrFBYwaqwvYMKaH5jfmn2CHS3FD36V
GUooxCt/f3JZwyhKQbwFOq92xdkMqQfxsefY4AkOggEbBvSzCYC/KVc+I3c0LDRm
TNK0i+IkxLSn6S12xyzOupITBn9AenHEQplTFwlh/qcKG09aXxsqNdf46zy5FUTl
l/i4dEgBQWjPRhlpb/IsQ9iKpaCJNRcg2Q6lKM+1ERLLuIezrs/o7a5k8AI7nVGL
jYiDn3B1ySszzUtBYDeEvqt2QoYFmxTqgtTto/ezwUEhJXvAWrIVSxiy/Iru24wh
iTsKpuwCd9qfNb3TpMXSwJtTXgO4AmmbUy4ZlsdEukLUbwIDAQABo3sweTAJBgNV
HRMEAjAAMCwGCWCGSAGG+EIBDQQfFh1PcGVuU1NMIEdlbmVyYXRlZCBDZXJ0aWZp
Y2F0ZTAdBgNVHQ4EFgQUgwwhRz5IdDuOPOUbsfWLRvQ89mAwHwYDVR0jBBgwFoAU
UvjFDAYIrNsNz1/O2jDZoYt+qawwDQYJKoZIhvcNAQELBQADggEBAF2GeTZObZTu
L4+Uv+/jFBVfnM04g4s/YRL/7wCc7seWSXw+QdU88TfSo4uhmhVoIK89k9uFAvwP
CKUFtNaINz3ylz9jtJxHEdNRe4+Kqqx8+mTkB3uqI8stFAStGTbHyctHKWO1dayk
8A/Y226jQBCaT5AP9EnR5F505DiXeclIxhvq7tIPPANtHiRgV0GjrYYOLaRcmt56
sV4d3H2U8KVUpAh6G+RqpHjNZnjfFNhucmxEh06kLJlH4E1UPr2k9chCZRwWo8b3
JG3phURcA394VFZew5SoRaBehaMqBYJFaUFoWThQmPueCSp80zZZmVuQJrPgw7uG
pRk87bsImfA=
-----END CERTIFICATE-----
